target datalayout = "e-m:e-p270:32:32-p271:32:32-p272:64:64-i64:64-i128:128-f80:128-n8:16:32:64-S128"
target triple = "x86_64-pc-linux-gnu"

%union.pthread_cond_t = type { %struct.__pthread_cond_s }
%struct.__pthread_cond_s = type { %union.__atomic_wide_counter, %union.__atomic_wide_counter, [2 x i32], [2 x i32], i32, i32, [2 x i32] }
%union.__atomic_wide_counter = type { i64 }
%struct.stat = type { i64, i64, i64, i32, i32, i32, i32, i64, i64, i64, i64, %struct.timespec, %struct.timespec, %struct.timespec, [3 x i64] }
%struct.timespec = type { i64, i64 }
%struct.optstruct = type { ptr, ptr, ptr, i64, i32, i32, i32, i32, ptr, ptr, ptr }
%struct.passwd = type { ptr, ptr, i32, i32, ptr, ptr, ptr }

@.str = private unnamed_addr constant [19 x i8] c"OnAccessExcludeUID\00", align 1
@.str.1 = private unnamed_addr constant [23 x i8] c"OnAccessExcludeRootUID\00", align 1
@.str.2 = private unnamed_addr constant [21 x i8] c"OnAccessExcludeUname\00", align 1
@.str.3 = private unnamed_addr constant [9 x i8] c"/proc/%u\00", align 1
@.str.4 = private unnamed_addr constant [59 x i8] c"ClamMisc: internal error (failed to exclude event) ... %s\0A\00", align 1
@.str.5 = private unnamed_addr constant [90 x i8] c"ClamMisc: system i/o failed while retrieving username information (excluding for safety)\0A\00", align 1
@.str.6 = private unnamed_addr constant [98 x i8] c"ClamMisc: caught signal while retrieving username information from system (excluding for safety)\0A\00", align 1
@.str.7 = private unnamed_addr constant [69 x i8] c"ClamMisc: waiting for consumer thread to catch up then retrying ...\0A\00", align 1
@.str.8 = private unnamed_addr constant [118 x i8] c"ClamMisc: fds have been exhausted ... attempting to force the consumer thread to catch up ... (excluding for safety)\0A\00", align 1
@onas_scan_queue_empty_cond = external global %union.pthread_cond_t, align 8
@.str.9 = private unnamed_addr constant [57 x i8] c"ClamMisc: unknown error occurred (excluding for safety)\0A\00", align 1
@.str.10 = private unnamed_addr constant [89 x i8] c"ClamMisc: permission denied to stat /proc/%d to exclude UIDs... perhaps SELinux denial?\0A\00", align 1
@.str.11 = private unnamed_addr constant [77 x i8] c"ClamMisc: $/proc/%d vanished before UIDs could be excluded; scanning anyway\0A\00", align 1

; Function Attrs: nounwind uwtable
define dso_local i32 @onas_fan_checkowner(i32 noundef %0, ptr noundef %1) #0 {
  %3 = alloca i32, align 4
  %4 = alloca i32, align 4
  %5 = alloca ptr, align 8
  %6 = alloca ptr, align 8
  %7 = alloca [32 x i8], align 16
  %8 = alloca %struct.stat, align 8
  %9 = alloca ptr, align 8
  %10 = alloca ptr, align 8
  %11 = alloca ptr, align 8
  %12 = alloca i32, align 4
  store i32 %0, ptr %4, align 4
  store ptr %1, ptr %5, align 8
  store ptr null, ptr %9, align 8
  store ptr null, ptr %10, align 8
  store ptr null, ptr %11, align 8
  store i32 0, ptr %12, align 4
  %13 = load i32, ptr %4, align 4
  %14 = call i32 @getpid() #6
  %15 = icmp eq i32 %13, %14
  br i1 %15, label %16, label %17

16:                                               ; preds = %2
  store i32 2, ptr %3, align 4
  br label %166

17:                                               ; preds = %2
  %18 = load ptr, ptr %5, align 8
  %19 = call ptr @optget(ptr noundef %18, ptr noundef @.str)
  store ptr %19, ptr %9, align 8
  %20 = load ptr, ptr %5, align 8
  %21 = call ptr @optget(ptr noundef %20, ptr noundef @.str.1)
  store ptr %21, ptr %10, align 8
  %22 = load ptr, ptr %5, align 8
  %23 = call ptr @optget(ptr noundef %22, ptr noundef @.str.2)
  store ptr %23, ptr %11, align 8
  %24 = load ptr, ptr %9, align 8
  %25 = getelementptr inbounds %struct.optstruct, ptr %24, i32 0, i32 4
  %26 = load i32, ptr %25, align 8
  %27 = icmp ne i32 %26, 0
  br i1 %27, label %39, label %28

28:                                               ; preds = %17
  %29 = load ptr, ptr %10, align 8
  %30 = getelementptr inbounds %struct.optstruct, ptr %29, i32 0, i32 4
  %31 = load i32, ptr %30, align 8
  %32 = icmp ne i32 %31, 0
  br i1 %32, label %39, label %33

33:                                               ; preds = %28
  %34 = load ptr, ptr %11, align 8
  %35 = getelementptr inbounds %struct.optstruct, ptr %34, i32 0, i32 4
  %36 = load i32, ptr %35, align 8
  %37 = icmp ne i32 %36, 0
  br i1 %37, label %39, label %38

38:                                               ; preds = %33
  store i32 0, ptr %3, align 4
  br label %166

39:                                               ; preds = %33, %28, %17
  %40 = getelementptr inbounds [32 x i8], ptr %7, i64 0, i64 0
  %41 = load i32, ptr %4, align 4
  %42 = call i32 (ptr, i64, ptr, ...) @snprintf(ptr noundef %40, i64 noundef 32, ptr noundef @.str.3, i32 noundef %41) #6
  %43 = getelementptr inbounds [32 x i8], ptr %7, i64 0, i64 0
  %44 = call i32 @stat(ptr noundef %43, ptr noundef %8) #6
  %45 = icmp eq i32 %44, 0
  br i1 %45, label %46, label %149

46:                                               ; preds = %39
  %47 = load ptr, ptr %9, align 8
  %48 = getelementptr inbounds %struct.optstruct, ptr %47, i32 0, i32 4
  %49 = load i32, ptr %48, align 8
  %50 = icmp ne i32 %49, 0
  br i1 %50, label %51, label %69

51:                                               ; preds = %46
  br label %52

52:                                               ; preds = %64, %51
  %53 = load ptr, ptr %9, align 8
  %54 = icmp ne ptr %53, null
  br i1 %54, label %55, label %68

55:                                               ; preds = %52
  %56 = load ptr, ptr %9, align 8
  %57 = getelementptr inbounds %struct.optstruct, ptr %56, i32 0, i32 3
  %58 = load i64, ptr %57, align 8
  %59 = getelementptr inbounds %struct.stat, ptr %8, i32 0, i32 4
  %60 = load i32, ptr %59, align 4
  %61 = zext i32 %60 to i64
  %62 = icmp eq i64 %58, %61
  br i1 %62, label %63, label %64

63:                                               ; preds = %55
  store i32 1, ptr %3, align 4
  br label %166

64:                                               ; preds = %55
  %65 = load ptr, ptr %9, align 8
  %66 = getelementptr inbounds %struct.optstruct, ptr %65, i32 0, i32 8
  %67 = load ptr, ptr %66, align 8
  store ptr %67, ptr %9, align 8
  br label %52

68:                                               ; preds = %52
  br label %69

69:                                               ; preds = %68, %46
  %70 = load ptr, ptr %11, align 8
  %71 = getelementptr inbounds %struct.optstruct, ptr %70, i32 0, i32 4
  %72 = load i32, ptr %71, align 8
  %73 = icmp ne i32 %72, 0
  br i1 %73, label %74, label %136

74:                                               ; preds = %69
  br label %75

75:                                               ; preds = %131, %103, %74
  %76 = load ptr, ptr %11, align 8
  %77 = icmp ne ptr %76, null
  br i1 %77, label %78, label %135

78:                                               ; preds = %75
  %79 = call ptr @__errno_location() #7
  store i32 0, ptr %79, align 4
  %80 = getelementptr inbounds %struct.stat, ptr %8, i32 0, i32 4
  %81 = load i32, ptr %80, align 4
  %82 = call ptr @getpwuid(i32 noundef %81)
  store ptr %82, ptr %6, align 8
  %83 = load ptr, ptr %6, align 8
  %84 = icmp eq ptr null, %83
  br i1 %84, label %85, label %116

85:                                               ; preds = %78
  %86 = call ptr @__errno_location() #7
  %87 = load i32, ptr %86, align 4
  %88 = icmp ne i32 %87, 0
  br i1 %88, label %89, label %115

89:                                               ; preds = %85
  %90 = call ptr @__errno_location() #7
  %91 = load i32, ptr %90, align 4
  %92 = call ptr @strerror(i32 noundef %91) #6
  %93 = call i32 (i32, ptr, ...) @logg(i32 noundef 2, ptr noundef @.str.4, ptr noundef %92)
  %94 = call ptr @__errno_location() #7
  %95 = load i32, ptr %94, align 4
  switch i32 %95, label %113 [
    i32 5, label %96
    i32 4, label %98
    i32 24, label %100
    i32 23, label %100
    i32 34, label %112
  ]

96:                                               ; preds = %89
  %97 = call i32 (i32, ptr, ...) @logg(i32 noundef 2, ptr noundef @.str.5)
  store i32 1, ptr %3, align 4
  br label %166

98:                                               ; preds = %89
  %99 = call i32 (i32, ptr, ...) @logg(i32 noundef 2, ptr noundef @.str.6)
  store i32 1, ptr %3, align 4
  br label %166

100:                                              ; preds = %89, %89
  %101 = load i32, ptr %12, align 4
  %102 = icmp sge i32 3, %101
  br i1 %102, label %103, label %108

103:                                              ; preds = %100
  %104 = call i32 (i32, ptr, ...) @logg(i32 noundef 2, ptr noundef @.str.7)
  %105 = call i32 @sleep(i32 noundef 6)
  %106 = load i32, ptr %12, align 4
  %107 = add nsw i32 %106, 1
  store i32 %107, ptr %12, align 4
  br label %75

108:                                              ; preds = %100
  %109 = call i32 (i32, ptr, ...) @logg(i32 noundef 2, ptr noundef @.str.8)
  %110 = call i32 @pthread_cond_signal(ptr noundef @onas_scan_queue_empty_cond) #6
  %111 = call i32 @sleep(i32 noundef 6)
  store i32 1, ptr %3, align 4
  br label %166

112:                                              ; preds = %89
  br label %113

113:                                              ; preds = %112, %89
  %114 = call i32 (i32, ptr, ...) @logg(i32 noundef 2, ptr noundef @.str.9)
  store i32 1, ptr %3, align 4
  br label %166

115:                                              ; preds = %85
  br label %131

116:                                              ; preds = %78
  %117 = load ptr, ptr %11, align 8
  %118 = getelementptr inbounds %struct.optstruct, ptr %117, i32 0, i32 2
  %119 = load ptr, ptr %118, align 8
  %120 = load ptr, ptr %6, align 8
  %121 = getelementptr inbounds %struct.passwd, ptr %120, i32 0, i32 0
  %122 = load ptr, ptr %121, align 8
  %123 = load ptr, ptr %11, align 8
  %124 = getelementptr inbounds %struct.optstruct, ptr %123, i32 0, i32 2
  %125 = load ptr, ptr %124, align 8
  %126 = call i64 @strlen(ptr noundef %125) #8
  %127 = call i32 @strncmp(ptr noundef %119, ptr noundef %122, i64 noundef %126) #8
  %128 = icmp ne i32 %127, 0
  br i1 %128, label %130, label %129

129:                                              ; preds = %116
  store i32 1, ptr %3, align 4
  br label %166

130:                                              ; preds = %116
  br label %131

131:                                              ; preds = %130, %115
  %132 = load ptr, ptr %11, align 8
  %133 = getelementptr inbounds %struct.optstruct, ptr %132, i32 0, i32 8
  %134 = load ptr, ptr %133, align 8
  store ptr %134, ptr %11, align 8
  br label %75

135:                                              ; preds = %75
  br label %136

136:                                              ; preds = %135, %69
  %137 = load ptr, ptr %10, align 8
  %138 = getelementptr inbounds %struct.optstruct, ptr %137, i32 0, i32 4
  %139 = load i32, ptr %138, align 8
  %140 = icmp ne i32 %139, 0
  br i1 %140, label %141, label %148

141:                                              ; preds = %136
  %142 = getelementptr inbounds %struct.stat, ptr %8, i32 0, i32 4
  %143 = load i32, ptr %142, align 4
  %144 = zext i32 %143 to i64
  %145 = icmp eq i64 0, %144
  br i1 %145, label %146, label %147

146:                                              ; preds = %141
  store i32 1, ptr %3, align 4
  br label %166

147:                                              ; preds = %141
  br label %148

148:                                              ; preds = %147, %136
  br label %165

149:                                              ; preds = %39
  %150 = call ptr @__errno_location() #7
  %151 = load i32, ptr %150, align 4
  %152 = icmp eq i32 %151, 13
  br i1 %152, label %153, label %156

153:                                              ; preds = %149
  %154 = load i32, ptr %4, align 4
  %155 = call i32 (i32, ptr, ...) @logg(i32 noundef 2, ptr noundef @.str.10, i32 noundef %154)
  br label %164

156:                                              ; preds = %149
  %157 = call ptr @__errno_location() #7
  %158 = load i32, ptr %157, align 4
  %159 = icmp eq i32 %158, 2
  br i1 %159, label %160, label %163

160:                                              ; preds = %156
  %161 = load i32, ptr %4, align 4
  %162 = call i32 (i32, ptr, ...) @logg(i32 noundef 2, ptr noundef @.str.11, i32 noundef %161)
  br label %163

163:                                              ; preds = %160, %156
  br label %164

164:                                              ; preds = %163, %153
  br label %165

165:                                              ; preds = %164, %148
  store i32 0, ptr %3, align 4
  br label %166

166:                                              ; preds = %165, %146, %129, %113, %108, %98, %96, %63, %38, %16
  %167 = load i32, ptr %3, align 4
  ret i32 %167
}