; Function Attrs: nounwind uwtable
define dso_local noundef i32 @onas_fan_checkowner(i32 noundef %0, ptr noundef %1) local_unnamed_addr #0 {
  %3 = alloca [32 x i8], align 16
  %4 = alloca %struct.stat, align 8
  %5 = tail call i32 @getpid() #8
  %6 = icmp eq i32 %5, %0
  br i1 %6, label %.loopexit, label %7

7:                                                ; preds = %2
  %8 = tail call ptr @optget(ptr noundef %1, ptr noundef nonnull @.str) #8
  %9 = tail call ptr @optget(ptr noundef %1, ptr noundef nonnull @.str.1) #8
  %10 = tail call ptr @optget(ptr noundef %1, ptr noundef nonnull @.str.2) #8
  %11 = getelementptr inbounds i8, ptr %8, i64 32
  %12 = load i32, ptr %11, align 8
  %.not = icmp eq i32 %12, 0
  br i1 %.not, label %13, label %19

13:                                               ; preds = %7
  %14 = getelementptr inbounds i8, ptr %9, i64 32
  %15 = load i32, ptr %14, align 8
  %.not44 = icmp eq i32 %15, 0
  br i1 %.not44, label %16, label %19

16:                                               ; preds = %13
  %17 = getelementptr inbounds i8, ptr %10, i64 32
  %18 = load i32, ptr %17, align 8
  %.not45 = icmp eq i32 %18, 0
  br i1 %.not45, label %.loopexit, label %19

19:                                               ; preds = %16, %13, %7
  %20 = call i32 (ptr, i64, ptr, ...) @snprintf(ptr noundef nonnull dereferenceable(1) %3, i64 noundef 32, ptr noundef nonnull @.str.3, i32 noundef %0) #8
  %21 = call i32 @stat(ptr noundef nonnull %3, ptr noundef nonnull %4) #8
  %22 = icmp eq i32 %21, 0
  br i1 %22, label %23, label %82

23:                                               ; preds = %19
  %24 = load i32, ptr %11, align 8
  %.not48 = icmp eq i32 %24, 0
  br i1 %.not48, label %.loopexit52, label %.preheader50

.preheader50:                                     ; preds = %23
  %25 = getelementptr inbounds i8, ptr %4, i64 28
  %26 = load i32, ptr %25, align 4
  %27 = zext i32 %26 to i64
  br label %28

28:                                               ; preds = %.preheader50, %32
  %.035 = phi ptr [ %34, %32 ], [ %8, %.preheader50 ]
  %29 = getelementptr inbounds i8, ptr %.035, i64 24
  %30 = load i64, ptr %29, align 8
  %31 = icmp eq i64 %30, %27
  br i1 %31, label %.loopexit, label %32

32:                                               ; preds = %28
  %33 = getelementptr inbounds i8, ptr %.035, i64 48
  %34 = load ptr, ptr %33, align 8
  %.old1.not = icmp eq ptr %34, null
  br i1 %.old1.not, label %.loopexit52, label %28

.loopexit52:                                      ; preds = %32, %23
  %35 = getelementptr inbounds i8, ptr %10, i64 32
  %36 = load i32, ptr %35, align 8
  %37 = icmp ne i32 %36, 0
  %38 = icmp ne ptr %10, null
  %or.cond4 = select i1 %37, i1 %38, i1 false
  br i1 %or.cond4, label %.preheader, label %.loopexit52..loopexit49_crit_edge

.loopexit52..loopexit49_crit_edge:                ; preds = %.loopexit52
  %.phi.trans.insert = getelementptr inbounds i8, ptr %4, i64 28
  %.pre = load i32, ptr %.phi.trans.insert, align 4
  br label %.loopexit49

.preheader:                                       ; preds = %.loopexit52
  %39 = tail call ptr @__errno_location() #9
  %40 = getelementptr inbounds i8, ptr %4, i64 28
  %41 = load i32, ptr %40, align 4
  br label %43

42:                                               ; preds = %74, %58
  %.033 = phi ptr [ %.134, %58 ], [ %76, %74 ]
  %.0 = phi i32 [ %61, %58 ], [ %.1, %74 ]
  %.old3.not = icmp eq ptr %.033, null
  br i1 %.old3.not, label %.loopexit49, label %43

43:                                               ; preds = %.preheader, %42
  %.134 = phi ptr [ %.033, %42 ], [ %10, %.preheader ]
  %.1 = phi i32 [ %.0, %42 ], [ 0, %.preheader ]
  store i32 0, ptr %39, align 4
  %44 = tail call ptr @getpwuid(i32 noundef %41) #8
  %45 = icmp eq ptr %44, null
  br i1 %45, label %46, label %68

46:                                               ; preds = %43
  %47 = load i32, ptr %39, align 4
  %.not47 = icmp eq i32 %47, 0
  br i1 %.not47, label %74, label %48

48:                                               ; preds = %46
  %49 = tail call ptr @strerror(i32 noundef %47) #8
  %50 = tail call i32 (i32, ptr, ...) @logg(i32 noundef 2, ptr noundef nonnull @.str.4, ptr noundef %49) #8
  %51 = load i32, ptr %39, align 4
  switch i32 %51, label %66 [
    i32 5, label %52
    i32 4, label %54
    i32 24, label %56
    i32 23, label %56
  ]

52:                                               ; preds = %48
  %53 = tail call i32 (i32, ptr, ...) @logg(i32 noundef 2, ptr noundef nonnull @.str.5) #8
  br label %.loopexit

54:                                               ; preds = %48
  %55 = tail call i32 (i32, ptr, ...) @logg(i32 noundef 2, ptr noundef nonnull @.str.6) #8
  br label %.loopexit

56:                                               ; preds = %48, %48
  %57 = icmp slt i32 %.1, 4
  br i1 %57, label %58, label %62

58:                                               ; preds = %56
  %59 = tail call i32 (i32, ptr, ...) @logg(i32 noundef 2, ptr noundef nonnull @.str.7) #8
  %60 = tail call i32 @sleep(i32 noundef 6) #8
  %61 = add nsw i32 %.1, 1
  br label %42

62:                                               ; preds = %56
  %63 = tail call i32 (i32, ptr, ...) @logg(i32 noundef 2, ptr noundef nonnull @.str.8) #8
  %64 = tail call i32 @pthread_cond_signal(ptr noundef nonnull @onas_scan_queue_empty_cond) #8
  %65 = tail call i32 @sleep(i32 noundef 6) #8
  br label %.loopexit

66:                                               ; preds = %48
  %67 = tail call i32 (i32, ptr, ...) @logg(i32 noundef 2, ptr noundef nonnull @.str.9) #8
  br label %.loopexit

68:                                               ; preds = %43
  %69 = getelementptr inbounds i8, ptr %.134, i64 16
  %70 = load ptr, ptr %69, align 8
  %71 = load ptr, ptr %44, align 8
  %72 = tail call i64 @strlen(ptr noundef nonnull dereferenceable(1) %70) #10
  %73 = tail call i32 @strncmp(ptr noundef %70, ptr noundef %71, i64 noundef %72) #10
  %.not46 = icmp eq i32 %73, 0
  br i1 %.not46, label %.loopexit, label %74

74:                                               ; preds = %68, %46
  %75 = getelementptr inbounds i8, ptr %.134, i64 48
  %76 = load ptr, ptr %75, align 8
  br label %42

.loopexit49:                                      ; preds = %42, %.loopexit52..loopexit49_crit_edge
  %77 = phi i32 [ %.pre, %.loopexit52..loopexit49_crit_edge ], [ %41, %42 ]
  %78 = getelementptr inbounds i8, ptr %9, i64 32
  %79 = load i32, ptr %78, align 8
  %80 = icmp ne i32 %79, 0
  %81 = icmp eq i32 %77, 0
  %or.cond9 = select i1 %80, i1 %81, i1 false
  br i1 %or.cond9, label %.loopexit, label %87

82:                                               ; preds = %19
  %83 = tail call ptr @__errno_location() #9
  %84 = load i32, ptr %83, align 4
  switch i32 %84, label %87 [
    i32 13, label %.sink.split
    i32 2, label %85
  ]

85:                                               ; preds = %82
  br label %.sink.split

.sink.split:                                      ; preds = %82, %85
  %.str.10.sink = phi ptr [ @.str.11, %85 ], [ @.str.10, %82 ]
  %86 = tail call i32 (i32, ptr, ...) @logg(i32 noundef 2, ptr noundef nonnull %.str.10.sink, i32 noundef %0) #8
  br label %87

87:                                               ; preds = %.sink.split, %82, %.loopexit49
  br label %.loopexit

.loopexit:                                        ; preds = %28, %68, %.loopexit49, %16, %2, %87, %66, %62, %54, %52
  %.036 = phi i32 [ 1, %66 ], [ 0, %87 ], [ 1, %62 ], [ 1, %54 ], [ 1, %52 ], [ 2, %2 ], [ 0, %16 ], [ 1, %.loopexit49 ], [ 1, %68 ], [ 1, %28 ]
  ret i32 %.036
}